; Function Attrs: mustprogress nounwind uwtable
define dso_local void @_ZNK5clang6driver9ToolChain16getSanitizerArgsERKN4llvm3opt7ArgListE(ptr dead_on_unwind noalias nonnull writable sret(%"class.clang::driver::SanitizerArgs") align 8 %0, ptr noundef nonnull align 8 dereferenceable(2168) %1, ptr noundef nonnull align 8 dereferenceable(176) %2) local_unnamed_addr #0 align 2 {
  %4 = getelementptr inbounds nuw i8, ptr %1, i64 1752
  %5 = load i8, ptr %4, align 8
  %6 = trunc i8 %5 to i1
  %7 = xor i1 %6, true
  tail call void @_ZN5clang6driver13SanitizerArgsC1ERKNS0_9ToolChainERKN4llvm3opt7ArgListEb(ptr noundef nonnull align 8 dereferenceable(296) %0, ptr noundef nonnull align 8 dereferenceable(2168) %1, ptr noundef nonnull align 8 dereferenceable(176) %2, i1 noundef zeroext %7) #25
  store i8 1, ptr %4, align 8
  ret void
}